ccopy_reg
_reconstructor
p0
(cgoogle.oauth2.credentials
Credentials
p1
c__builtin__
object
p2
Ntp3
Rp4
(dp5
S'_token_uri'
p6
Vhttps://oauth2.googleapis.com/token
p7
sS'_client_secret'
p8
V5f4QFa8_UB07aVii3H3qJACD
p9
sS'_id_token'
p10
NsS'token'
p11
Vya29.GlsVB7HQZhMaHhKOrE3LM9Q4mGkkaE-VOz3YJuKJIpfTQZZiI1CE5HENBCNgeyTDEkpIAmSTapufSpzRfJgsjKIYnMdeVdh88xP_pxZX_YiAkhGrPlzP82onKzCF
p12
sS'_refresh_token'
p13
V1/J8m_kPuIG6WoP4gSvG4rRZ8igT0NfA56oSma70eWUqM
p14
sS'_scopes'
p15
(lp16
S'https://www.googleapis.com/auth/spreadsheets.readonly'
p17
asS'_client_id'
p18
V234755721054-tjakigu39jdqbttf5qt1jjahck1n7jch.apps.googleusercontent.com
p19
sS'expiry'
p20
cdatetime
datetime
p21
(S'\x07\xe3\x05\x1a\x10#%\x04t\xa0'
p22
tp23
Rp24
sb.