ccopy_reg
_reconstructor
p0
(cgoogle.oauth2.credentials
Credentials
p1
c__builtin__
object
p2
Ntp3
Rp4
(dp5
S'_token_uri'
p6
Vhttps://oauth2.googleapis.com/token
p7
sS'_scopes'
p8
(lp9
S'https://www.googleapis.com/auth/spreadsheets.readonly'
p10
asS'_id_token'
p11
NsS'token'
p12
Vya29.GlwZBzSrtXDfrkb-g6ifzUgzBdyX8ucAJyKbsA5RS_Q37nZffi3AMkVS5_wuG-mV06PF_p3PzoUesUBMyu5XutImhpimaAAveyw5xBIYsfNINc45_vPfnJtRnDg5Tw
p13
sS'_refresh_token'
p14
V1/liFslh4hszMzVFviSdbgGd9dhwwQbEMhJhcNRuB0fRnvTATDMKDaiEWb9DL3wzrN
p15
sS'_client_secret'
p16
V5f4QFa8_UB07aVii3H3qJACD
p17
sS'_client_id'
p18
V234755721054-tjakigu39jdqbttf5qt1jjahck1n7jch.apps.googleusercontent.com
p19
sS'expiry'
p20
cdatetime
datetime
p21
(S'\x07\xe3\x05\x1e\x058\x17\x04\x0b('
p22
tp23
Rp24
sb.